; Function Attrs: mustprogress uwtable
define void @_ZN18nonbonded_verlet_t27setupFepThreadedForceBufferEi(ptr nocapture noundef nonnull readonly align 8 dereferenceable(64) %0, i32 noundef %1) local_unnamed_addr #0 align 2 {
  %3 = alloca i32, align 4
  %4 = alloca i32, align 4
  %5 = load ptr, ptr %0, align 8
  %6 = getelementptr inbounds i8, ptr %5, i64 4
  %7 = load i8, ptr %6, align 4
  %8 = trunc i8 %7 to i1
  br i1 %8, label %9, label %17

9:                                                ; preds = %2
  %10 = getelementptr inbounds i8, ptr %0, i64 32
  %11 = load ptr, ptr %10, align 8
  %.not = icmp eq ptr %11, null
  br i1 %.not, label %12, label %13

12:                                               ; preds = %9
  tail call void @_ZN3gmx8internal13assertHandlerEPKcS2_S2_S2_i(ptr noundef nonnull @.str.1, ptr noundef nonnull @.str.2, ptr noundef nonnull @"__PRETTY_FUNCTION__._ZZN18nonbonded_verlet_t27setupFepThreadedForceBufferEiENK3$_0clEv", ptr noundef nonnull @.str.3, i32 noundef 129) #17
  unreachable

13:                                               ; preds = %9
  call void @llvm.lifetime.start.p0(i64 4, ptr nonnull %3)
  call void @llvm.lifetime.start.p0(i64 4, ptr nonnull %4)
  %14 = tail call i32 @__kmpc_global_thread_num(ptr nonnull @2)
  store i32 %1, ptr %3, align 4
  %15 = getelementptr inbounds i8, ptr %11, i64 128
  %16 = tail call noundef i32 @_ZNK3gmx19ThreadedForceBufferINS_11BasicVectorIfEEE16numThreadBuffersEv(ptr noundef nonnull align 8 dereferenceable(80) %15)
  store i32 %16, ptr %4, align 4
  tail call void @__kmpc_push_num_threads(ptr nonnull @2, i32 %14, i32 %16)
  call void (ptr, i32, ptr, ...) @__kmpc_fork_call(ptr nonnull @2, i32 4, ptr nonnull @_ZN18FreeEnergyDispatch27setupFepThreadedForceBufferEiRK12PairlistSets.omp_outlined, ptr nonnull %4, ptr nonnull %11, ptr nonnull %3, ptr nonnull %5)
  call void @_ZN3gmx19ThreadedForceBufferINS_11BasicVectorIfEEE14setupReductionEv(ptr noundef nonnull align 8 dereferenceable(80) %15)
  call void @llvm.lifetime.end.p0(i64 4, ptr nonnull %3)
  call void @llvm.lifetime.end.p0(i64 4, ptr nonnull %4)
  br label %17

17:                                               ; preds = %2, %13
  ret void
}